SF:/Users/craigoconnor/Documents/Projects/OpenS2/earclip/rust/earcut.rs
FN:61,_RNvMNtCs1m5rwWnqSmB_7earclip6earcutNtB2_4Node3new
FN:65,_RNvMNtCs1m5rwWnqSmB_7earclip6earcutNtB2_4Node9link_info
FN:85,_RNvMs_NtCs1m5rwWnqSmB_7earclip6earcutNtB4_5Store3new
FN:96,_RNvMs_NtCs1m5rwWnqSmB_7earclip6earcutNtB4_5Store5reset
FN:105,_RNvNtCs1m5rwWnqSmB_7earclip6earcut6earcut
FN:119,_RNvNtCs1m5rwWnqSmB_7earclip6earcut11earcut_impl
FN:200,_RNvNtCs1m5rwWnqSmB_7earclip6earcut11linked_list
FN:249,_RNvNtCs1m5rwWnqSmB_7earclip6earcut15eliminate_holes
FN:272,_RNCNvNtCs1m5rwWnqSmB_7earclip6earcut15eliminate_holes0B5_
FN:291,_RNvNtCs1m5rwWnqSmB_7earclip6earcut13earcut_linked
FN:364,_RNvNtCs1m5rwWnqSmB_7earclip6earcut6is_ear
FN:397,_RNvNtCs1m5rwWnqSmB_7earclip6earcut13is_ear_hashed
FN:421,_RNCNvNtCs1m5rwWnqSmB_7earclip6earcut13is_ear_hashed0B5_
FN:422,_RNCNvNtCs1m5rwWnqSmB_7earclip6earcut13is_ear_hasheds_0B5_
FN:445,_RNCNvNtCs1m5rwWnqSmB_7earclip6earcut13is_ear_hasheds0_0B5_
FN:457,_RNCNvNtCs1m5rwWnqSmB_7earclip6earcut13is_ear_hasheds1_0B5_
FN:475,_RNCNvNtCs1m5rwWnqSmB_7earclip6earcut13is_ear_hasheds2_0B5_
FN:493,_RNCNvNtCs1m5rwWnqSmB_7earclip6earcut13is_ear_hasheds3_0B5_
FN:500,_RNvNtCs1m5rwWnqSmB_7earclip6earcut24cure_local_intersections
FN:539,_RNvNtCs1m5rwWnqSmB_7earclip6earcut12split_earcut
FN:585,_RNvNtCs1m5rwWnqSmB_7earclip6earcut11index_curve
FN:609,_RNvNtCs1m5rwWnqSmB_7earclip6earcut11sort_linked
FN:699,_RNvNtCs1m5rwWnqSmB_7earclip6earcut12get_leftmost
FN:718,_RNvNtCs1m5rwWnqSmB_7earclip6earcut17is_valid_diagonal
FN:734,_RNvNtCs1m5rwWnqSmB_7earclip6earcut10intersects
FN:747,_RNvNtCs1m5rwWnqSmB_7earclip6earcut18intersects_polygon
FN:764,_RNvNtCs1m5rwWnqSmB_7earclip6earcut13middle_inside
FN:783,_RNvNtCs1m5rwWnqSmB_7earclip6earcut14eliminate_hole
FN:797,_RNvNtCs1m5rwWnqSmB_7earclip6earcut14locally_inside
FN:808,_RNvNtCs1m5rwWnqSmB_7earclip6earcut16find_hole_bridge
FN:881,_RNvNtCs1m5rwWnqSmB_7earclip6earcut22sector_contains_sector
FN:887,_RNvNtCs1m5rwWnqSmB_7earclip6earcut13filter_points
FN:913,_RNvNtCs1m5rwWnqSmB_7earclip6earcut13split_polygon
FN:941,_RNvNtCs1m5rwWnqSmB_7earclip6earcut11insert_node
FN:960,_RNvNtCs1m5rwWnqSmB_7earclip6earcut11remove_node
FN:985,_RNvNtCs1m5rwWnqSmB_7earclip6earcut11signed_area
FN:999,_RNvNtCs1m5rwWnqSmB_7earclip6earcut7z_order
FN:1012,_RNvNtCs1m5rwWnqSmB_7earclip6earcut17point_in_triangle
FN:1019,_RNvNtCs1m5rwWnqSmB_7earclip6earcut4area
FN:1024,_RNvNtCs1m5rwWnqSmB_7earclip6earcut6equals
FN:1029,_RNvNtCs1m5rwWnqSmB_7earclip6earcut10on_segment
FN:1034,_RNvNtCs1m5rwWnqSmB_7earclip6earcut4sign
FN:272,_RNCNvNtCs6yctXiA9Rh3_7earclip6earcut15eliminate_holes0B5_
FN:421,_RNCNvNtCs6yctXiA9Rh3_7earclip6earcut13is_ear_hashed0B5_
FN:422,_RNCNvNtCs6yctXiA9Rh3_7earclip6earcut13is_ear_hasheds_0B5_
FN:445,_RNCNvNtCs6yctXiA9Rh3_7earclip6earcut13is_ear_hasheds0_0B5_
FN:457,_RNCNvNtCs6yctXiA9Rh3_7earclip6earcut13is_ear_hasheds1_0B5_
FN:475,_RNCNvNtCs6yctXiA9Rh3_7earclip6earcut13is_ear_hasheds2_0B5_
FN:493,_RNCNvNtCs6yctXiA9Rh3_7earclip6earcut13is_ear_hasheds3_0B5_
FN:61,_RNvMNtCs6yctXiA9Rh3_7earclip6earcutNtB2_4Node3new
FN:65,_RNvMNtCs6yctXiA9Rh3_7earclip6earcutNtB2_4Node9link_info
FN:85,_RNvMs_NtCs6yctXiA9Rh3_7earclip6earcutNtB4_5Store3new
FN:96,_RNvMs_NtCs6yctXiA9Rh3_7earclip6earcutNtB4_5Store5reset
FN:105,_RNvNtCs6yctXiA9Rh3_7earclip6earcut6earcut
FN:119,_RNvNtCs6yctXiA9Rh3_7earclip6earcut11earcut_impl
FN:200,_RNvNtCs6yctXiA9Rh3_7earclip6earcut11linked_list
FN:249,_RNvNtCs6yctXiA9Rh3_7earclip6earcut15eliminate_holes
FN:291,_RNvNtCs6yctXiA9Rh3_7earclip6earcut13earcut_linked
FN:364,_RNvNtCs6yctXiA9Rh3_7earclip6earcut6is_ear
FN:397,_RNvNtCs6yctXiA9Rh3_7earclip6earcut13is_ear_hashed
FN:500,_RNvNtCs6yctXiA9Rh3_7earclip6earcut24cure_local_intersections
FN:539,_RNvNtCs6yctXiA9Rh3_7earclip6earcut12split_earcut
FN:585,_RNvNtCs6yctXiA9Rh3_7earclip6earcut11index_curve
FN:609,_RNvNtCs6yctXiA9Rh3_7earclip6earcut11sort_linked
FN:699,_RNvNtCs6yctXiA9Rh3_7earclip6earcut12get_leftmost
FN:718,_RNvNtCs6yctXiA9Rh3_7earclip6earcut17is_valid_diagonal
FN:734,_RNvNtCs6yctXiA9Rh3_7earclip6earcut10intersects
FN:747,_RNvNtCs6yctXiA9Rh3_7earclip6earcut18intersects_polygon
FN:764,_RNvNtCs6yctXiA9Rh3_7earclip6earcut13middle_inside
FN:783,_RNvNtCs6yctXiA9Rh3_7earclip6earcut14eliminate_hole
FN:797,_RNvNtCs6yctXiA9Rh3_7earclip6earcut14locally_inside
FN:808,_RNvNtCs6yctXiA9Rh3_7earclip6earcut16find_hole_bridge
FN:881,_RNvNtCs6yctXiA9Rh3_7earclip6earcut22sector_contains_sector
FN:887,_RNvNtCs6yctXiA9Rh3_7earclip6earcut13filter_points
FN:913,_RNvNtCs6yctXiA9Rh3_7earclip6earcut13split_polygon
FN:941,_RNvNtCs6yctXiA9Rh3_7earclip6earcut11insert_node
FN:960,_RNvNtCs6yctXiA9Rh3_7earclip6earcut11remove_node
FN:985,_RNvNtCs6yctXiA9Rh3_7earclip6earcut11signed_area
FN:999,_RNvNtCs6yctXiA9Rh3_7earclip6earcut7z_order
FN:1012,_RNvNtCs6yctXiA9Rh3_7earclip6earcut17point_in_triangle
FN:1019,_RNvNtCs6yctXiA9Rh3_7earclip6earcut4area
FN:1024,_RNvNtCs6yctXiA9Rh3_7earclip6earcut6equals
FN:1029,_RNvNtCs6yctXiA9Rh3_7earclip6earcut10on_segment
FN:1034,_RNvNtCs6yctXiA9Rh3_7earclip6earcut4sign
FNDA:0,_RNvMNtCs1m5rwWnqSmB_7earclip6earcutNtB2_4Node3new
FNDA:0,_RNvMNtCs1m5rwWnqSmB_7earclip6earcutNtB2_4Node9link_info
FNDA:0,_RNvMs_NtCs1m5rwWnqSmB_7earclip6earcutNtB4_5Store3new
FNDA:0,_RNvMs_NtCs1m5rwWnqSmB_7earclip6earcutNtB4_5Store5reset
FNDA:0,_RNvNtCs1m5rwWnqSmB_7earclip6earcut6earcut
FNDA:0,_RNvNtCs1m5rwWnqSmB_7earclip6earcut11earcut_impl
FNDA:0,_RNvNtCs1m5rwWnqSmB_7earclip6earcut11linked_list
FNDA:0,_RNvNtCs1m5rwWnqSmB_7earclip6earcut15eliminate_holes
FNDA:0,_RNCNvNtCs1m5rwWnqSmB_7earclip6earcut15eliminate_holes0B5_
FNDA:0,_RNvNtCs1m5rwWnqSmB_7earclip6earcut13earcut_linked
FNDA:0,_RNvNtCs1m5rwWnqSmB_7earclip6earcut6is_ear
FNDA:0,_RNvNtCs1m5rwWnqSmB_7earclip6earcut13is_ear_hashed
FNDA:0,_RNCNvNtCs1m5rwWnqSmB_7earclip6earcut13is_ear_hashed0B5_
FNDA:0,_RNCNvNtCs1m5rwWnqSmB_7earclip6earcut13is_ear_hasheds_0B5_
FNDA:0,_RNCNvNtCs1m5rwWnqSmB_7earclip6earcut13is_ear_hasheds0_0B5_
FNDA:0,_RNCNvNtCs1m5rwWnqSmB_7earclip6earcut13is_ear_hasheds1_0B5_
FNDA:0,_RNCNvNtCs1m5rwWnqSmB_7earclip6earcut13is_ear_hasheds2_0B5_
FNDA:0,_RNCNvNtCs1m5rwWnqSmB_7earclip6earcut13is_ear_hasheds3_0B5_
FNDA:0,_RNvNtCs1m5rwWnqSmB_7earclip6earcut24cure_local_intersections
FNDA:0,_RNvNtCs1m5rwWnqSmB_7earclip6earcut12split_earcut
FNDA:0,_RNvNtCs1m5rwWnqSmB_7earclip6earcut11index_curve
FNDA:0,_RNvNtCs1m5rwWnqSmB_7earclip6earcut11sort_linked
FNDA:0,_RNvNtCs1m5rwWnqSmB_7earclip6earcut12get_leftmost
FNDA:0,_RNvNtCs1m5rwWnqSmB_7earclip6earcut17is_valid_diagonal
FNDA:0,_RNvNtCs1m5rwWnqSmB_7earclip6earcut10intersects
FNDA:0,_RNvNtCs1m5rwWnqSmB_7earclip6earcut18intersects_polygon
FNDA:0,_RNvNtCs1m5rwWnqSmB_7earclip6earcut13middle_inside
FNDA:0,_RNvNtCs1m5rwWnqSmB_7earclip6earcut14eliminate_hole
FNDA:0,_RNvNtCs1m5rwWnqSmB_7earclip6earcut14locally_inside
FNDA:0,_RNvNtCs1m5rwWnqSmB_7earclip6earcut16find_hole_bridge
FNDA:0,_RNvNtCs1m5rwWnqSmB_7earclip6earcut22sector_contains_sector
FNDA:0,_RNvNtCs1m5rwWnqSmB_7earclip6earcut13filter_points
FNDA:0,_RNvNtCs1m5rwWnqSmB_7earclip6earcut13split_polygon
FNDA:0,_RNvNtCs1m5rwWnqSmB_7earclip6earcut11insert_node
FNDA:0,_RNvNtCs1m5rwWnqSmB_7earclip6earcut11remove_node
FNDA:0,_RNvNtCs1m5rwWnqSmB_7earclip6earcut11signed_area
FNDA:0,_RNvNtCs1m5rwWnqSmB_7earclip6earcut7z_order
FNDA:0,_RNvNtCs1m5rwWnqSmB_7earclip6earcut17point_in_triangle
FNDA:0,_RNvNtCs1m5rwWnqSmB_7earclip6earcut4area
FNDA:0,_RNvNtCs1m5rwWnqSmB_7earclip6earcut6equals
FNDA:0,_RNvNtCs1m5rwWnqSmB_7earclip6earcut10on_segment
FNDA:0,_RNvNtCs1m5rwWnqSmB_7earclip6earcut4sign
FNDA:5700,_RNCNvNtCs6yctXiA9Rh3_7earclip6earcut15eliminate_holes0B5_
FNDA:125285,_RNCNvNtCs6yctXiA9Rh3_7earclip6earcut13is_ear_hashed0B5_
FNDA:125175,_RNCNvNtCs6yctXiA9Rh3_7earclip6earcut13is_ear_hasheds_0B5_
FNDA:117769,_RNCNvNtCs6yctXiA9Rh3_7earclip6earcut13is_ear_hasheds0_0B5_
FNDA:93624,_RNCNvNtCs6yctXiA9Rh3_7earclip6earcut13is_ear_hasheds1_0B5_
FNDA:537101,_RNCNvNtCs6yctXiA9Rh3_7earclip6earcut13is_ear_hasheds2_0B5_
FNDA:454406,_RNCNvNtCs6yctXiA9Rh3_7earclip6earcut13is_ear_hasheds3_0B5_
FNDA:25224,_RNvMNtCs6yctXiA9Rh3_7earclip6earcutNtB2_4Node3new
FNDA:25039,_RNvMNtCs6yctXiA9Rh3_7earclip6earcutNtB2_4Node9link_info
FNDA:54,_RNvMs_NtCs6yctXiA9Rh3_7earclip6earcutNtB4_5Store3new
FNDA:52,_RNvMs_NtCs6yctXiA9Rh3_7earclip6earcutNtB4_5Store5reset
FNDA:54,_RNvNtCs6yctXiA9Rh3_7earclip6earcut6earcut
FNDA:52,_RNvNtCs6yctXiA9Rh3_7earclip6earcut11earcut_impl
FNDA:841,_RNvNtCs6yctXiA9Rh3_7earclip6earcut11linked_list
FNDA:41,_RNvNtCs6yctXiA9Rh3_7earclip6earcut15eliminate_holes
FNDA:388,_RNvNtCs6yctXiA9Rh3_7earclip6earcut13earcut_linked
FNDA:3868,_RNvNtCs6yctXiA9Rh3_7earclip6earcut6is_ear
FNDA:386253,_RNvNtCs6yctXiA9Rh3_7earclip6earcut13is_ear_hashed
FNDA:97,_RNvNtCs6yctXiA9Rh3_7earclip6earcut24cure_local_intersections
FNDA:90,_RNvNtCs6yctXiA9Rh3_7earclip6earcut12split_earcut
FNDA:99,_RNvNtCs6yctXiA9Rh3_7earclip6earcut11index_curve
FNDA:99,_RNvNtCs6yctXiA9Rh3_7earclip6earcut11sort_linked
FNDA:789,_RNvNtCs6yctXiA9Rh3_7earclip6earcut12get_leftmost
FNDA:7427,_RNvNtCs6yctXiA9Rh3_7earclip6earcut17is_valid_diagonal
FNDA:479993,_RNvNtCs6yctXiA9Rh3_7earclip6earcut10intersects
FNDA:7420,_RNvNtCs6yctXiA9Rh3_7earclip6earcut18intersects_polygon
FNDA:69,_RNvNtCs6yctXiA9Rh3_7earclip6earcut13middle_inside
FNDA:789,_RNvNtCs6yctXiA9Rh3_7earclip6earcut14eliminate_hole
FNDA:2658,_RNvNtCs6yctXiA9Rh3_7earclip6earcut14locally_inside
FNDA:789,_RNvNtCs6yctXiA9Rh3_7earclip6earcut16find_hole_bridge
FNDA:14,_RNvNtCs6yctXiA9Rh3_7earclip6earcut22sector_contains_sector
FNDA:2008,_RNvNtCs6yctXiA9Rh3_7earclip6earcut13filter_points
FNDA:856,_RNvNtCs6yctXiA9Rh3_7earclip6earcut13split_polygon
FNDA:23406,_RNvNtCs6yctXiA9Rh3_7earclip6earcut11insert_node
FNDA:25039,_RNvNtCs6yctXiA9Rh3_7earclip6earcut11remove_node
FNDA:1662,_RNvNtCs6yctXiA9Rh3_7earclip6earcut11signed_area
FNDA:273960,_RNvNtCs6yctXiA9Rh3_7earclip6earcut7z_order
FNDA:318612,_RNvNtCs6yctXiA9Rh3_7earclip6earcut17point_in_triangle
FNDA:6019339,_RNvNtCs6yctXiA9Rh3_7earclip6earcut4area
FNDA:3596130,_RNvNtCs6yctXiA9Rh3_7earclip6earcut6equals
FNDA:2760,_RNvNtCs6yctXiA9Rh3_7earclip6earcut10on_segment
FNDA:1919972,_RNvNtCs6yctXiA9Rh3_7earclip6earcut4sign
FNF:42
FNH:42
DA:61,25224
DA:62,25224
DA:63,25224
DA:65,25039
DA:66,25039
DA:67,25039
DA:68,25039
DA:69,25039
DA:70,25039
DA:71,25039
DA:72,25039
DA:85,54
DA:86,54
DA:87,54
DA:88,54
DA:89,54
DA:90,54
DA:91,54
DA:92,54
DA:93,54
DA:94,54
DA:96,52
DA:97,52
DA:98,52
DA:99,52
DA:100,52
DA:105,54
DA:106,54
DA:107,54
DA:108,54
DA:109,54
DA:110,54
DA:111,2
DA:112,52
DA:113,52
DA:114,52
DA:115,52
DA:116,54
DA:119,52
DA:120,52
DA:121,52
DA:122,52
DA:123,52
DA:124,52
DA:125,52
DA:126,52
DA:127,52
DA:128,52
DA:129,52
DA:132,52
DA:133,0
DA:135,52
DA:136,52
DA:137,1
DA:138,51
DA:139,51
DA:140,41
DA:141,41
DA:143,51
DA:144,51
DA:145,51
DA:146,51
DA:147,51
DA:148,51
DA:149,51
DA:150,51
DA:152,17
DA:153,17
DA:154,17
DA:155,17
DA:156,17
DA:157,17
DA:159,16994
DA:160,16994
DA:161,16994
DA:162,16994
DA:163,523
DA:164,16471
DA:165,16994
DA:166,984
DA:167,16010
DA:168,16994
DA:169,987
DA:170,16007
DA:171,16994
DA:172,389
DA:173,16605
DA:177,17
DA:178,17
DA:179,17
DA:180,17
DA:181,17
DA:182,17
DA:183,0
DA:184,0
DA:185,34
DA:187,51
DA:188,51
DA:189,51
DA:190,51
DA:191,51
DA:192,51
DA:193,51
DA:194,51
DA:195,51
DA:196,51
DA:197,52
DA:200,841
DA:201,841
DA:202,841
DA:203,841
DA:204,841
DA:205,841
DA:206,841
DA:207,841
DA:208,841
DA:209,841
DA:210,760
DA:211,21537
DA:212,20777
DA:213,20777
DA:214,20777
DA:215,20777
DA:216,20777
DA:217,20777
DA:218,20777
DA:219,20777
DA:221,81
DA:222,2698
DA:223,2629
DA:224,2629
DA:225,2629
DA:226,2629
DA:227,2629
DA:228,2629
DA:229,2629
DA:230,12
DA:231,2617
DA:232,2617
DA:236,841
DA:237,841
DA:238,841
DA:239,764
DA:240,764
DA:241,764
DA:242,764
DA:243,0
DA:245,841
DA:246,841
DA:249,41
DA:250,41
DA:251,41
DA:252,41
DA:253,41
DA:254,41
DA:255,41
DA:256,789
DA:257,789
DA:258,789
DA:259,789
DA:260,789
DA:261,789
DA:262,789
DA:263,17
DA:264,772
DA:265,789
DA:266,789
DA:267,0
DA:270,41
DA:271,41
DA:272,5700
DA:275,789
DA:276,789
DA:277,789
DA:279,41
DA:280,41
DA:291,388
DA:292,388
DA:293,388
DA:294,388
DA:295,388
DA:296,388
DA:297,388
DA:298,388
DA:299,388
DA:300,388
DA:301,388
DA:302,388
DA:303,388
DA:304,388
DA:305,99
DA:306,289
DA:308,388
DA:312,390220
DA:313,390220
DA:314,99
DA:315,390121
DA:316,390121
DA:318,390121
DA:319,386253
DA:321,3868
DA:323,390121
DA:324,21376
DA:325,21376
DA:326,21376
DA:327,21376
DA:328,21376
DA:329,21376
DA:330,21376
DA:331,21376
DA:332,21376
DA:333,21376
DA:334,21376
DA:335,21376
DA:336,21376
DA:337,21376
DA:338,21376
DA:339,368745
DA:340,368745
DA:341,368745
DA:342,368745
DA:343,368745
DA:344,368745
DA:345,289
DA:346,102
DA:347,102
DA:348,102
DA:349,187
DA:350,97
DA:351,97
DA:352,97
DA:353,97
DA:354,97
DA:355,90
DA:356,90
DA:357,90
DA:358,289
DA:359,368456
DA:361,388
DA:364,3868
DA:365,3868
DA:366,3868
DA:367,3868
DA:369,3868
DA:371,1857
DA:372,2011
DA:373,2011
DA:374,2011
DA:375,2011
DA:376,2011
DA:377,2011
DA:378,2011
DA:379,2011
DA:380,2011
DA:382,2011
DA:383,2011
DA:384,25669
DA:385,25077
DA:386,25077
DA:387,2744
DA:388,1861
DA:390,1419
DA:391,23658
DA:392,23658
DA:394,592
DA:395,3868
DA:397,386253
DA:398,386253
DA:399,386253
DA:400,386253
DA:401,386253
DA:402,386253
DA:403,386253
DA:404,386253
DA:405,386253
DA:406,386253
DA:408,386253
DA:410,259896
DA:411,126357
DA:412,126357
DA:413,126357
DA:414,126357
DA:415,126357
DA:416,126357
DA:417,126357
DA:418,126357
DA:419,126357
DA:420,126357
DA:421,126357
DA:422,126357
DA:426,220163
DA:427,218818
DA:428,37371
DA:429,181447
DA:430,181447
DA:431,180169
DA:432,30885
DA:433,149284
DA:434,149284
DA:435,149284
DA:436,149284
DA:437,149284
DA:438,149284
DA:439,69866
DA:440,51508
DA:441,35331
DA:443,31192
DA:444,118092
DA:445,118092
DA:446,118092
DA:447,118092
DA:448,118092
DA:449,118092
DA:450,118092
DA:451,54597
DA:452,38967
DA:453,27612
DA:455,24286
DA:456,93806
DA:457,93806
DA:461,608261
DA:462,606635
DA:463,45089
DA:464,561546
DA:465,561546
DA:466,561546
DA:467,561546
DA:468,561546
DA:469,64947
DA:470,42479
DA:471,27114
DA:473,24164
DA:474,537382
DA:475,537382
DA:479,501326
DA:480,500737
DA:481,20195
DA:482,480542
DA:483,480542
DA:484,480542
DA:485,480542
DA:486,480542
DA:487,63678
DA:488,39081
DA:489,29469
DA:491,25931
DA:492,454611
DA:493,454611
DA:496,20784
DA:497,386253
DA:500,97
DA:501,97
DA:502,97
DA:503,97
DA:504,97
DA:505,97
DA:506,97
DA:508,12534
DA:509,12534
DA:510,12534
DA:511,12534
DA:512,12534
DA:513,12534
DA:515,12534
DA:516,12217
DA:517,157
DA:518,122
DA:520,107
DA:521,107
DA:522,107
DA:523,107
DA:524,107
DA:525,107
DA:526,107
DA:527,107
DA:528,12427
DA:529,12427
DA:530,12427
DA:532,12534
DA:533,97
DA:534,12437
DA:536,97
DA:539,90
DA:540,90
DA:541,90
DA:542,90
DA:543,90
DA:544,90
DA:545,90
DA:546,90
DA:547,90
DA:548,90
DA:549,90
DA:550,90
DA:552,175
DA:553,175
DA:554,175
DA:556,7539
DA:557,7433
DA:558,7433
DA:560,69
DA:563,69
DA:564,69
DA:565,69
DA:566,69
DA:567,69
DA:568,69
DA:569,69
DA:570,69
DA:571,69
DA:572,7364
DA:573,7364
DA:576,106
DA:577,106
DA:578,21
DA:579,85
DA:580,85
DA:582,90
DA:585,99
DA:586,99
DA:587,99
DA:590,28220
DA:591,21246
DA:592,21246
DA:593,28220
DA:594,28220
DA:595,28220
DA:596,28220
DA:597,28220
DA:598,99
DA:599,28121
DA:602,99
DA:603,99
DA:604,99
DA:605,99
DA:609,99
DA:610,99
DA:611,99
DA:614,567
DA:615,567
DA:616,567
DA:617,567
DA:619,28940
DA:620,28373
DA:621,28373
DA:622,28373
DA:623,28373
DA:624,140216
DA:625,140054
DA:626,140054
DA:628,162
DA:631,28373
DA:634,338479
DA:635,270097
DA:636,270097
DA:637,227613
DA:638,210365
DA:639,108695
DA:640,108695
DA:641,108695
DA:642,108695
DA:643,108695
DA:645,101670
DA:646,101670
DA:647,101670
DA:648,101670
DA:649,101670
DA:652,17248
DA:653,17248
DA:654,17248
DA:655,17248
DA:656,17248
DA:659,42484
DA:660,42484
DA:661,42484
DA:662,42484
DA:663,42484
DA:665,68382
DA:666,40489
DA:667,40009
DA:668,40009
DA:669,40009
DA:670,40009
DA:671,40009
DA:673,480
DA:676,27893
DA:679,310106
DA:680,309539
DA:681,567
DA:682,567
DA:683,567
DA:684,310106
DA:687,28373
DA:690,567
DA:691,567
DA:692,99
DA:693,468
DA:694,468
DA:696,99
DA:699,789
DA:700,789
DA:701,789
DA:702,789
DA:703,789
DA:706,5244
DA:707,908
DA:708,4336
DA:709,5244
DA:710,5244
DA:711,789
DA:712,4455
DA:713,4455
DA:715,789
DA:718,7427
DA:719,7427
DA:720,7427
DA:722,7427
DA:724,493
DA:726,44
DA:728,450
DA:729,31
DA:730,28
DA:731,7427
DA:734,479993
DA:735,479993
DA:736,479993
DA:737,479993
DA:738,479993
DA:739,479993
DA:740,472911
DA:741,472911
DA:742,472909
DA:743,472909
DA:744,479993
DA:747,7420
DA:748,7420
DA:750,479470
DA:751,479470
DA:752,467776
DA:754,6927
DA:755,472543
DA:756,472543
DA:757,472543
DA:758,493
DA:759,472050
DA:761,7420
DA:764,69
DA:765,69
DA:766,69
DA:767,69
DA:768,69
DA:770,14048
DA:771,14048
DA:772,328
DA:773,328
DA:774,328
DA:775,14048
DA:776,14048
DA:777,69
DA:778,13979
DA:780,69
DA:783,789
DA:784,789
DA:785,2
DA:787,787
DA:790,787
DA:791,787
DA:792,787
DA:793,787
DA:794,789
DA:797,2658
DA:798,2658
DA:799,2658
DA:800,2658
DA:801,1141
DA:803,1517
DA:805,2658
DA:808,789
DA:809,789
DA:810,789
DA:811,789
DA:815,789
DA:817,2513281
DA:818,2513281
DA:819,7448
DA:820,7448
DA:821,7448
DA:822,2230
DA:823,2230
DA:824,2230
DA:826,96
DA:827,2134
DA:828,5218
DA:829,2505833
DA:830,2513185
DA:831,2513185
DA:832,693
DA:833,2512492
DA:834,2512492
DA:837,693
DA:843,691
DA:844,691
DA:845,691
DA:846,691
DA:847,691
DA:848,691
DA:849,691
DA:852,2393275
DA:854,143833
DA:855,143833
DA:856,143833
DA:857,143833
DA:860,1640
DA:861,1640
DA:862,1086
DA:863,323
DA:864,16
DA:865,14
DA:866,766
DA:867,766
DA:868,766
DA:869,874
DA:870,2391635
DA:872,2393275
DA:873,2393275
DA:874,691
DA:875,2392584
DA:876,2392584
DA:878,789
DA:881,14
DA:882,14
DA:883,5
DA:884,14
DA:887,2008
DA:888,2008
DA:889,2008
DA:890,2008
DA:891,2008
DA:893,3584258
DA:894,3584258
DA:895,2685
DA:896,2685
DA:897,2685
DA:898,13
DA:899,2672
DA:900,2672
DA:902,3581573
DA:903,3581573
DA:904,1995
DA:905,3579578
DA:906,3579578
DA:909,2008
DA:913,856
DA:914,856
DA:915,856
DA:916,856
DA:918,856
DA:919,856
DA:920,856
DA:921,856
DA:922,856
DA:923,856
DA:925,856
DA:926,856
DA:927,856
DA:928,856
DA:929,856
DA:930,856
DA:931,856
DA:932,856
DA:933,856
DA:935,856
DA:936,856
DA:937,856
DA:938,856
DA:941,23406
DA:942,23406
DA:943,23406
DA:944,23406
DA:945,22565
DA:946,22565
DA:947,22565
DA:948,22565
DA:949,22565
DA:950,22565
DA:952,841
DA:953,841
DA:954,841
DA:956,23406
DA:957,23406
DA:958,23406
DA:960,25039
DA:961,25039
DA:962,25039
DA:963,25039
DA:964,20756
DA:965,3817
DA:966,3817
DA:967,16939
DA:969,4283
DA:971,25039
DA:972,25039
DA:973,25039
DA:974,20863
DA:975,4961
DA:976,4961
DA:977,15902
DA:979,4176
DA:981,25039
DA:982,25039
DA:985,1662
DA:986,1662
DA:987,1662
DA:988,1662
DA:989,48200
DA:990,46538
DA:991,46538
DA:992,46538
DA:993,46538
DA:995,1662
DA:996,1662
DA:999,273960
DA:1000,273960
DA:1001,273960
DA:1002,273960
DA:1003,273960
DA:1004,273960
DA:1005,273960
DA:1006,273960
DA:1007,273960
DA:1008,273960
DA:1009,273960
DA:1012,318612
DA:1013,318612
DA:1014,202717
DA:1015,166607
DA:1016,318612
DA:1019,6019339
DA:1020,6019339
DA:1021,6019339
DA:1024,3596130
DA:1025,3596130
DA:1026,3596130
DA:1029,2760
DA:1030,2760
DA:1031,488
DA:1032,2760
DA:1034,1919972
DA:1035,1919972
DA:1036,1919972
BRF:0
BRH:0
LF:757
LH:752
end_of_record
SF:/Users/craigoconnor/Documents/Projects/OpenS2/earclip/rust/lib.rs
FN:46,_RNvCs1m5rwWnqSmB_7earclip7earclip
FN:64,_RNCNvCs1m5rwWnqSmB_7earclip7earclip0B3_
FN:70,_RNvCs1m5rwWnqSmB_7earclip9tesselate
FN:95,_RNvCs1m5rwWnqSmB_7earclip18split_if_necessary
FN:190,_RNvCs1m5rwWnqSmB_7earclip13create_vertex
FN:216,_RNvCs1m5rwWnqSmB_7earclip11split_right
FN:265,_RNvCs1m5rwWnqSmB_7earclip10split_left
FN:321,_RNvCs1m5rwWnqSmB_7earclip4mod2
FN:326,_RNvCs1m5rwWnqSmB_7earclip7flatten
FN:352,_RINvCs1m5rwWnqSmB_7earclip10convert_2dpEB2_
FN:354,_RNCINvCs1m5rwWnqSmB_7earclip10convert_2dpE0B4_
FN:354,_RNCNCINvCs1m5rwWnqSmB_7earclip10convert_2dpE00B6_
FN:359,_RINvCs1m5rwWnqSmB_7earclip10convert_3dpEB2_
FN:361,_RNCINvCs1m5rwWnqSmB_7earclip10convert_3dpE0B4_
FN:361,_RNCNCINvCs1m5rwWnqSmB_7earclip10convert_3dpE00B6_
FN:367,_RNvCs1m5rwWnqSmB_7earclip9deviation
FN:46,_RNvCs6yctXiA9Rh3_7earclip7earclip
FN:70,_RNvCs6yctXiA9Rh3_7earclip9tesselate
FN:95,_RNvCs6yctXiA9Rh3_7earclip18split_if_necessary
FN:190,_RNvCs6yctXiA9Rh3_7earclip13create_vertex
FN:216,_RNvCs6yctXiA9Rh3_7earclip11split_right
FN:265,_RNvCs6yctXiA9Rh3_7earclip10split_left
FN:321,_RNvCs6yctXiA9Rh3_7earclip4mod2
FN:326,_RNvCs6yctXiA9Rh3_7earclip7flatten
FN:367,_RNvCs6yctXiA9Rh3_7earclip9deviation
FN:352,_RINvCs6yctXiA9Rh3_7earclip10convert_2dpEB2_
FN:354,_RNCINvCs6yctXiA9Rh3_7earclip10convert_2dpE0B4_
FN:354,_RNCNCINvCs6yctXiA9Rh3_7earclip10convert_2dpE00B6_
FN:359,_RINvCs6yctXiA9Rh3_7earclip10convert_3dpEB2_
FN:361,_RNCINvCs6yctXiA9Rh3_7earclip10convert_3dpE0B4_
FN:361,_RNCNCINvCs6yctXiA9Rh3_7earclip10convert_3dpE00B6_
FN:64,_RNCNvCs6yctXiA9Rh3_7earclip7earclip0B3_
FNDA:0,_RNvCs1m5rwWnqSmB_7earclip7earclip
FNDA:0,_RNCNvCs1m5rwWnqSmB_7earclip7earclip0B3_
FNDA:0,_RNvCs1m5rwWnqSmB_7earclip9tesselate
FNDA:0,_RNvCs1m5rwWnqSmB_7earclip18split_if_necessary
FNDA:0,_RNvCs1m5rwWnqSmB_7earclip13create_vertex
FNDA:0,_RNvCs1m5rwWnqSmB_7earclip11split_right
FNDA:0,_RNvCs1m5rwWnqSmB_7earclip10split_left
FNDA:0,_RNvCs1m5rwWnqSmB_7earclip4mod2
FNDA:0,_RNvCs1m5rwWnqSmB_7earclip7flatten
FNDA:0,_RINvCs1m5rwWnqSmB_7earclip10convert_2dpEB2_
FNDA:0,_RNCINvCs1m5rwWnqSmB_7earclip10convert_2dpE0B4_
FNDA:0,_RNCNCINvCs1m5rwWnqSmB_7earclip10convert_2dpE00B6_
FNDA:0,_RINvCs1m5rwWnqSmB_7earclip10convert_3dpEB2_
FNDA:0,_RNCINvCs1m5rwWnqSmB_7earclip10convert_3dpE0B4_
FNDA:0,_RNCNCINvCs1m5rwWnqSmB_7earclip10convert_3dpE00B6_
FNDA:0,_RNvCs1m5rwWnqSmB_7earclip9deviation
FNDA:4,_RNvCs6yctXiA9Rh3_7earclip7earclip
FNDA:1,_RNvCs6yctXiA9Rh3_7earclip9tesselate
FNDA:155,_RNvCs6yctXiA9Rh3_7earclip18split_if_necessary
FNDA:68,_RNvCs6yctXiA9Rh3_7earclip13create_vertex
FNDA:11,_RNvCs6yctXiA9Rh3_7earclip11split_right
FNDA:18,_RNvCs6yctXiA9Rh3_7earclip10split_left
FNDA:220,_RNvCs6yctXiA9Rh3_7earclip4mod2
FNDA:50,_RNvCs6yctXiA9Rh3_7earclip7flatten
FNDA:41,_RNvCs6yctXiA9Rh3_7earclip9deviation
FNDA:0,_RINvCs6yctXiA9Rh3_7earclip10convert_2dpEB2_
FNDA:0,_RNCINvCs6yctXiA9Rh3_7earclip10convert_2dpE0B4_
FNDA:0,_RNCNCINvCs6yctXiA9Rh3_7earclip10convert_2dpE00B6_
FNDA:0,_RINvCs6yctXiA9Rh3_7earclip10convert_3dpEB2_
FNDA:0,_RNCINvCs6yctXiA9Rh3_7earclip10convert_3dpE0B4_
FNDA:0,_RNCNCINvCs6yctXiA9Rh3_7earclip10convert_3dpE00B6_
FNDA:279,_RNCNvCs6yctXiA9Rh3_7earclip7earclip0B3_
FNF:16
FNH:10
DA:46,4
DA:47,4
DA:48,4
DA:49,4
DA:50,4
DA:51,4
DA:52,4
DA:53,4
DA:54,4
DA:55,4
DA:56,4
DA:57,4
DA:58,4
DA:59,4
DA:60,1
DA:61,3
DA:64,279
DA:65,4
DA:66,4
DA:67,4
DA:70,1
DA:71,2
DA:72,2
DA:73,157
DA:74,155
DA:75,155
DA:76,155
DA:78,29
DA:79,155
DA:80,29
DA:81,29
DA:82,29
DA:83,29
DA:84,29
DA:85,126
DA:87,155
DA:90,1
DA:95,155
DA:96,155
DA:97,155
DA:98,155
DA:99,155
DA:100,155
DA:101,155
DA:102,155
DA:103,155
DA:104,155
DA:105,155
DA:106,155
DA:107,155
DA:108,155
DA:109,155
DA:110,48
DA:111,48
DA:112,2
DA:113,2
DA:114,2
DA:115,46
DA:116,107
DA:117,37
DA:118,37
DA:119,7
DA:120,30
DA:121,37
DA:122,37
DA:123,7
DA:124,7
DA:125,7
DA:126,30
DA:127,70
DA:129,146
DA:130,10
DA:131,10
DA:132,10
DA:133,6
DA:134,4
DA:136,4
DA:137,4
DA:138,4
DA:139,6
DA:140,136
DA:141,39
DA:142,39
DA:143,16
DA:144,23
DA:145,39
DA:146,39
DA:147,39
DA:148,20
DA:149,13
DA:151,4
DA:152,4
DA:153,4
DA:154,35
DA:155,97
DA:157,138
DA:158,46
DA:159,46
DA:160,46
DA:161,30
DA:162,24
DA:164,5
DA:165,5
DA:166,5
DA:167,41
DA:168,92
DA:169,40
DA:170,40
DA:171,3
DA:172,37
DA:173,40
DA:174,40
DA:175,40
DA:176,22
DA:177,13
DA:179,7
DA:180,7
DA:181,7
DA:182,33
DA:183,52
DA:185,126
DA:186,155
DA:190,68
DA:191,68
DA:192,68
DA:193,68
DA:194,68
DA:195,68
DA:196,68
DA:197,68
DA:198,68
DA:199,68
DA:200,68
DA:201,68
DA:202,204
DA:203,136
DA:204,136
DA:205,136
DA:206,68
DA:207,68
DA:208,68
DA:209,68
DA:211,68
DA:212,68
DA:216,11
DA:217,11
DA:218,11
DA:219,11
DA:220,11
DA:221,11
DA:222,11
DA:223,11
DA:224,11
DA:225,11
DA:226,11
DA:227,11
DA:228,11
DA:229,11
DA:230,11
DA:231,11
DA:232,11
DA:233,11
DA:234,11
DA:235,11
DA:236,11
DA:237,11
DA:238,11
DA:239,9
DA:240,0
DA:241,0
DA:242,0
DA:243,0
DA:244,0
DA:245,0
DA:246,0
DA:247,9
DA:248,9
DA:250,2
DA:251,0
DA:252,0
DA:253,0
DA:254,0
DA:255,0
DA:256,0
DA:257,0
DA:258,2
DA:259,2
DA:261,11
DA:265,18
DA:266,18
DA:267,18
DA:268,18
DA:269,18
DA:270,18
DA:271,18
DA:272,18
DA:273,18
DA:274,18
DA:275,18
DA:276,18
DA:277,18
DA:278,18
DA:279,18
DA:280,18
DA:281,18
DA:282,18
DA:283,18
DA:284,18
DA:285,18
DA:287,8
DA:288,1
DA:289,1
DA:290,1
DA:291,1
DA:292,1
DA:293,1
DA:294,1
DA:295,1
DA:296,1
DA:298,7
DA:299,7
DA:300,7
DA:303,15
DA:304,4
DA:305,4
DA:306,4
DA:307,4
DA:308,4
DA:309,4
DA:310,4
DA:311,4
DA:312,4
DA:314,11
DA:315,11
DA:316,11
DA:318,18
DA:321,220
DA:322,220
DA:323,220
DA:326,50
DA:327,50
DA:328,50
DA:329,50
DA:330,50
DA:332,838
DA:333,24237
DA:334,23399
DA:335,23399
DA:336,23399
DA:337,23399
DA:338,3
DA:339,3
DA:340,23396
DA:342,838
DA:343,789
DA:344,789
DA:345,789
DA:348,50
DA:349,50
DA:352,0
DA:353,0
DA:354,0
DA:355,0
DA:356,0
DA:359,0
DA:360,0
DA:361,0
DA:362,0
DA:363,0
DA:367,41
DA:368,41
DA:369,41
DA:370,41
DA:371,41
DA:372,41
DA:373,780
DA:374,780
DA:375,780
DA:376,780
DA:377,780
DA:379,6
DA:381,41
DA:382,41
DA:383,21494
DA:384,21453
DA:385,21453
DA:386,21453
DA:387,21453
DA:388,21453
DA:389,21453
DA:390,21453
DA:391,21453
DA:392,21453
DA:394,41
DA:395,41
DA:396,0
DA:398,41
DA:400,41
BRF:0
BRH:0
LF:303
LH:274
end_of_record